; Function Attrs: mustprogress nofree norecurse nosync nounwind willreturn memory(readwrite, inaccessiblemem: none) uwtable
define hidden void @_ZN9Assembler9pcmpestriE11XMMRegisterS0_i(ptr noundef nonnull align 8 dereferenceable(40) %0, i32 %1, i32 %2, i32 noundef %3) local_unnamed_addr #8 align 2 {
  %5 = alloca %class.InstructionAttr, align 8
  %6 = load i32, ptr @UseAVX, align 4
  store <8 x i8> <i8 0, i8 1, i8 1, i8 0, i8 0, i8 0, i8 1, i8 0>, ptr %5, align 8
  %7 = getelementptr inbounds i8, ptr %5, i64 8
  store <4 x i32> <i32 0, i32 24, i32 4, i32 0>, ptr %7, align 8
  %8 = getelementptr inbounds i8, ptr %5, i64 24
  store i32 0, ptr %8, align 8
  %9 = getelementptr inbounds i8, ptr %5, i64 32
  store ptr null, ptr %9, align 8
  %10 = sext i32 %1 to i64
  %11 = getelementptr inbounds %"class.XMMRegister::XMMRegisterImpl", ptr getelementptr inbounds (i8, ptr @all_XMMRegisterImpls, i64 1), i64 %10
  %12 = ptrtoint ptr %11 to i64
  %13 = trunc i64 %12 to i32
  %14 = sub i32 %13, ptrtoint (ptr getelementptr inbounds (i8, ptr @all_XMMRegisterImpls, i64 1) to i32)
  %15 = sext i32 %2 to i64
  %16 = getelementptr inbounds %"class.XMMRegister::XMMRegisterImpl", ptr getelementptr inbounds (i8, ptr @all_XMMRegisterImpls, i64 1), i64 %15
  %17 = ptrtoint ptr %16 to i64
  %18 = trunc i64 %17 to i32
  %19 = sub i32 %18, ptrtoint (ptr getelementptr inbounds (i8, ptr @all_XMMRegisterImpls, i64 1) to i32)
  %20 = icmp sgt i32 %6, 0
  br i1 %20, label %21, label %23

21:                                               ; preds = %4
  %22 = call noundef i32 @_ZN9Assembler21vex_prefix_and_encodeEiiiNS_13VexSimdPrefixENS_9VexOpcodeEP15InstructionAttrb(ptr noundef nonnull align 8 dereferenceable(40) %0, i32 noundef %14, i32 noundef 0, i32 noundef %19, i32 noundef 1, i32 noundef 3, ptr noundef nonnull %5, i1 noundef zeroext false)
  br label %_ZN9Assembler22simd_prefix_and_encodeE11XMMRegisterS0_S0_NS_13VexSimdPrefixENS_9VexOpcodeEP15InstructionAttrb.exit

23:                                               ; preds = %4
  %24 = tail call noundef i32 @_ZN9Assembler21rex_prefix_and_encodeEiiNS_13VexSimdPrefixENS_9VexOpcodeEb(ptr noundef nonnull align 8 dereferenceable(40) %0, i32 noundef %14, i32 noundef %19, i32 noundef 1, i32 noundef 3, i1 noundef zeroext false)
  br label %_ZN9Assembler22simd_prefix_and_encodeE11XMMRegisterS0_S0_NS_13VexSimdPrefixENS_9VexOpcodeEP15InstructionAttrb.exit

_ZN9Assembler22simd_prefix_and_encodeE11XMMRegisterS0_S0_NS_13VexSimdPrefixENS_9VexOpcodeEP15InstructionAttrb.exit: ; preds = %21, %23
  %.0.i = phi i32 [ %22, %21 ], [ %24, %23 ]
  %25 = getelementptr inbounds i8, ptr %0, i64 8
  %26 = load ptr, ptr %25, align 8
  %27 = trunc i32 %.0.i to i8
  %.0.i3.i = or i8 %27, -64
  %.0.i4.i = trunc i32 %3 to i8
  %28 = getelementptr inbounds i8, ptr %26, i64 16
  %29 = load ptr, ptr %28, align 8
  %30 = getelementptr inbounds i8, ptr %29, i64 1
  store i8 97, ptr %29, align 1
  %31 = getelementptr inbounds i8, ptr %29, i64 2
  store i8 %.0.i3.i, ptr %30, align 1
  %32 = getelementptr inbounds i8, ptr %29, i64 3
  store i8 %.0.i4.i, ptr %31, align 1
  store ptr %32, ptr %28, align 8
  %33 = load ptr, ptr %9, align 8
  %.not.i = icmp eq ptr %33, null
  br i1 %.not.i, label %_ZN15InstructionAttrD2Ev.exit, label %34

34:                                               ; preds = %_ZN9Assembler22simd_prefix_and_encodeE11XMMRegisterS0_S0_NS_13VexSimdPrefixENS_9VexOpcodeEP15InstructionAttrb.exit
  %35 = getelementptr inbounds i8, ptr %33, i64 32
  store ptr null, ptr %35, align 8
  br label %_ZN15InstructionAttrD2Ev.exit

_ZN15InstructionAttrD2Ev.exit:                    ; preds = %_ZN9Assembler22simd_prefix_and_encodeE11XMMRegisterS0_S0_NS_13VexSimdPrefixENS_9VexOpcodeEP15InstructionAttrb.exit, %34
  ret void
}